#include <math.h>
#include <stdio.h>
#include <stdlib.h>
#include <string.h>

char dp[10000];
int num[10000],n;
int main()
{
    int i,j,len,flag=1,max=0,k;
    scanf("%d",&n);
    scanf("%s",dp);
    len=strlen(dp);
    for(i=0;i+n-1<len;i++)
    for(j=i;j+n-1<len;j++)
    {
                          flag=1;
                          for(k=0;k<n;k++)
                          {
                                          if(dp[i+k]!=dp[j+k])
                                          {
                                          flag=0;
                                          break;
                                          }
                          }
                          if(flag==1)
                          {
                          num[i]++;
                          }
                          if(num[i]>max)
                          max=num[i];
    }
    if(max==1){
    printf("NO");
    return 0;
    }
    printf("%d",max);
    for(i=0;i<len;i++)
    if(num[i]==max)
    {printf("\n");
    for(j=0;j<n;j++)
    printf("%c",dp[i+j]);
    }
    //getch();
    return 0;
}
    
    
    
